; ModuleID = '11/807.c'
source_filename = "11/807.c"
target datalayout = "e-m:e-p270:32:32-p271:32:32-p272:64:64-i64:64-f80:128-n8:16:32:64-S128"
target triple = "x86_64-pc-linux-gnu"

@.str = private unnamed_addr constant [9 x i8] c"%d %d %d\00", align 1
@.str.1 = private unnamed_addr constant [4 x i8] c"%d\0A\00", align 1

; Function Attrs: noinline nounwind uwtable
define dso_local i32 @f(i32 %0) #0 {
  %2 = alloca i32, align 4
  %3 = alloca i32, align 4
  store i32 %0, i32* %3, align 4
  %4 = load i32, i32* %3, align 4
  %5 = srem i32 %4, 4
  %6 = icmp ne i32 %5, 0
  br i1 %6, label %7, label %8

7:                                                ; preds = %1
  store i32 0, i32* %2, align 4
  br label %18

8:                                                ; preds = %1
  %9 = load i32, i32* %3, align 4
  %10 = srem i32 %9, 100
  %11 = icmp eq i32 %10, 0
  br i1 %11, label %12, label %17

12:                                               ; preds = %8
  %13 = load i32, i32* %3, align 4
  %14 = srem i32 %13, 400
  %15 = icmp ne i32 %14, 0
  br i1 %15, label %16, label %17

16:                                               ; preds = %12
  store i32 0, i32* %2, align 4
  br label %18

17:                                               ; preds = %12, %8
  store i32 1, i32* %2, align 4
  br label %18

18:                                               ; preds = %17, %16, %7
  %19 = load i32, i32* %2, align 4
  ret i32 %19
}

; Function Attrs: noinline nounwind uwtable
define dso_local i32 @main() #0 {
  %1 = alloca i32, align 4
  %2 = alloca i32, align 4
  %3 = alloca i32, align 4
  %4 = alloca i32, align 4
  %5 = alloca i32, align 4
  %6 = alloca i32, align 4
  %7 = alloca [13 x i32], align 16
  store i32 0, i32* %1, align 4
  store i32 1, i32* %5, align 4
  store i32 0, i32* %6, align 4
  %8 = call i32 (i8*, ...) @__isoc99_scanf(i8* getelementptr inbounds ([9 x i8], [9 x i8]* @.str, i64 0, i64 0), i32* %2, i32* %3, i32* %4)
  %9 = getelementptr inbounds [13 x i32], [13 x i32]* %7, i64 0, i64 1
  store i32 31, i32* %9, align 4
  %10 = load i32, i32* %2, align 4
  %11 = call i32 @f(i32 %10)
  %12 = icmp eq i32 %11, 0
  br i1 %12, label %13, label %15

13:                                               ; preds = %0
  %14 = getelementptr inbounds [13 x i32], [13 x i32]* %7, i64 0, i64 2
  store i32 28, i32* %14, align 8
  br label %17

15:                                               ; preds = %0
  %16 = getelementptr inbounds [13 x i32], [13 x i32]* %7, i64 0, i64 2
  store i32 29, i32* %16, align 8
  br label %17

17:                                               ; preds = %15, %13
  %18 = getelementptr inbounds [13 x i32], [13 x i32]* %7, i64 0, i64 3
  store i32 31, i32* %18, align 4
  %19 = getelementptr inbounds [13 x i32], [13 x i32]* %7, i64 0, i64 4
  store i32 30, i32* %19, align 16
  %20 = getelementptr inbounds [13 x i32], [13 x i32]* %7, i64 0, i64 5
  store i32 31, i32* %20, align 4
  %21 = getelementptr inbounds [13 x i32], [13 x i32]* %7, i64 0, i64 6
  store i32 30, i32* %21, align 8
  %22 = getelementptr inbounds [13 x i32], [13 x i32]* %7, i64 0, i64 7
  store i32 31, i32* %22, align 4
  %23 = getelementptr inbounds [13 x i32], [13 x i32]* %7, i64 0, i64 8
  store i32 31, i32* %23, align 16
  %24 = getelementptr inbounds [13 x i32], [13 x i32]* %7, i64 0, i64 9
  store i32 30, i32* %24, align 4
  %25 = getelementptr inbounds [13 x i32], [13 x i32]* %7, i64 0, i64 10
  store i32 31, i32* %25, align 8
  %26 = getelementptr inbounds [13 x i32], [13 x i32]* %7, i64 0, i64 11
  store i32 30, i32* %26, align 4
  %27 = getelementptr inbounds [13 x i32], [13 x i32]* %7, i64 0, i64 12
  store i32 31, i32* %27, align 16
  store i32 1, i32* %5, align 4
  br label %28

28:                                               ; preds = %39, %17
  %29 = load i32, i32* %5, align 4
  %30 = load i32, i32* %3, align 4
  %31 = icmp slt i32 %29, %30
  br i1 %31, label %32, label %42

32:                                               ; preds = %28
  %33 = load i32, i32* %6, align 4
  %34 = load i32, i32* %5, align 4
  %35 = sext i32 %34 to i64
  %36 = getelementptr inbounds [13 x i32], [13 x i32]* %7, i64 0, i64 %35
  %37 = load i32, i32* %36, align 4
  %38 = add nsw i32 %33, %37
  store i32 %38, i32* %6, align 4
  br label %39

39:                                               ; preds = %32
  %40 = load i32, i32* %5, align 4
  %41 = add nsw i32 %40, 1
  store i32 %41, i32* %5, align 4
  br label %28

42:                                               ; preds = %28
  %43 = load i32, i32* %6, align 4
  %44 = load i32, i32* %4, align 4
  %45 = add nsw i32 %43, %44
  store i32 %45, i32* %6, align 4
  %46 = load i32, i32* %6, align 4
  %47 = call i32 (i8*, ...) @printf(i8* getelementptr inbounds ([4 x i8], [4 x i8]* @.str.1, i64 0, i64 0), i32 %46)
  %48 = load i32, i32* %1, align 4
  ret i32 %48
}

declare dso_local i32 @__isoc99_scanf(i8*, ...) #1

declare dso_local i32 @printf(i8*, ...) #1


!llvm.module.flags = !{!0}
!llvm.ident = !{!1}

!0 = !{i32 1, !"wchar_size", i32 4}
!1 = !{!"clang version 10.0.0-4ubuntu1 "}
